; Function Attrs: nofree norecurse nosync nounwind memory(argmem: read) uwtable
define range(i32 0, 2) i32 @isCompletelyPositiveMap4(ptr noundef readonly captures(none) %0, i32 noundef %1) local_unnamed_addr #6 {
  %3 = icmp sgt i32 %1, 0
  br i1 %3, label %.preheader69.us.preheader, label %.loopexit

.preheader69.us.preheader:                        ; preds = %2
  %wide.trip.count = zext nneg i32 %1 to i64
  br label %.preheader69.us

.preheader69.us:                                  ; preds = %.preheader69.us.preheader, %.critedge.split.us.us
  %indvars.iv98 = phi i64 [ 0, %.preheader69.us.preheader ], [ %indvars.iv.next99, %.critedge.split.us.us ]
  br label %.preheader68.us.us

.preheader68.us.us:                               ; preds = %23, %.preheader69.us
  %indvars.iv94 = phi i64 [ %indvars.iv.next95, %23 ], [ 0, %.preheader69.us ]
  br label %.preheader.us.us

4:                                                ; preds = %5
  %indvars.iv.next91 = add nuw nsw i64 %indvars.iv90, 1
  %exitcond93.not = icmp eq i64 %indvars.iv.next91, %wide.trip.count
  br i1 %exitcond93.not, label %._crit_edge.us.us, label %.preheader.us.us

5:                                                ; preds = %.preheader.us.us, %5
  %indvars.iv = phi i64 [ 0, %.preheader.us.us ], [ %indvars.iv.next, %5 ]
  %.16173.us.us = phi double [ %.06076.us.us, %.preheader.us.us ], [ %20, %5 ]
  %.16372.us.us = phi double [ %.06275.us.us, %.preheader.us.us ], [ %16, %5 ]
  %6 = getelementptr inbounds nuw [4 x [4 x double]], ptr %21, i64 0, i64 %indvars.iv, i64 %indvars.iv98
  %7 = load double, ptr %6, align 8, !tbaa !9
  %8 = getelementptr inbounds nuw [4 x [4 x double]], ptr %21, i64 0, i64 %indvars.iv, i64 %indvars.iv94
  %9 = load double, ptr %8, align 8, !tbaa !9
  %10 = getelementptr inbounds nuw [4 x [4 x double]], ptr %22, i64 0, i64 %indvars.iv, i64 %indvars.iv98
  %11 = load double, ptr %10, align 8, !tbaa !9
  %12 = getelementptr inbounds nuw [4 x [4 x double]], ptr %22, i64 0, i64 %indvars.iv, i64 %indvars.iv94
  %13 = load double, ptr %12, align 8, !tbaa !9
  %14 = fmul double %11, %13
  %15 = tail call double @llvm.fmuladd.f64(double %7, double %9, double %14)
  %16 = fadd double %.16372.us.us, %15
  %17 = fneg double %9
  %18 = fmul double %11, %17
  %19 = tail call double @llvm.fmuladd.f64(double %7, double %13, double %18)
  %20 = fadd double %.16173.us.us, %19
  %indvars.iv.next = add nuw nsw i64 %indvars.iv, 1
  %exitcond89.not = icmp eq i64 %indvars.iv.next, 4
  br i1 %exitcond89.not, label %4, label %5

.preheader.us.us:                                 ; preds = %4, %.preheader68.us.us
  %indvars.iv90 = phi i64 [ %indvars.iv.next91, %4 ], [ 0, %.preheader68.us.us ]
  %.06076.us.us = phi double [ %20, %4 ], [ 0.000000e+00, %.preheader68.us.us ]
  %.06275.us.us = phi double [ %16, %4 ], [ 0.000000e+00, %.preheader68.us.us ]
  %21 = getelementptr inbounds nuw %struct.ComplexMatrix4, ptr %0, i64 %indvars.iv90
  %22 = getelementptr inbounds nuw i8, ptr %21, i64 128
  br label %5

23:                                               ; preds = %._crit_edge.us.us
  %indvars.iv.next95 = add nuw nsw i64 %indvars.iv94, 1
  %exitcond97 = icmp eq i64 %indvars.iv.next95, 4
  br i1 %exitcond97, label %.critedge.split.us.us, label %.preheader68.us.us

._crit_edge.us.us:                                ; preds = %4
  %24 = icmp eq i64 %indvars.iv98, %indvars.iv94
  %25 = uitofp i1 %24 to double
  %26 = fsub double %16, %25
  %27 = fmul double %26, %26
  %28 = tail call double @llvm.fmuladd.f64(double %20, double %20, double %27)
  %29 = fcmp ule double %28, 1.000000e-26
  br i1 %29, label %23, label %.loopexit

.critedge.split.us.us:                            ; preds = %23
  %indvars.iv.next99 = add nuw nsw i64 %indvars.iv98, 1
  %exitcond101 = icmp eq i64 %indvars.iv.next99, 4
  br i1 %exitcond101, label %.loopexit, label %.preheader69.us

.loopexit:                                        ; preds = %.critedge.split.us.us, %._crit_edge.us.us, %2
  %spec.select = phi i32 [ 0, %2 ], [ 0, %._crit_edge.us.us ], [ 1, %.critedge.split.us.us ]
  ret i32 %spec.select
}